; ModuleID = '45/1041.c'
source_filename = "45/1041.c"
target datalayout = "e-m:e-p270:32:32-p271:32:32-p272:64:64-i64:64-f80:128-n8:16:32:64-S128"
target triple = "x86_64-pc-linux-gnu"

@.str = private unnamed_addr constant [6 x i8] c"%s %s\00", align 1
@.str.1 = private unnamed_addr constant [3 x i8] c"%d\00", align 1

; Function Attrs: noinline nounwind uwtable
define dso_local i32 @main() #0 {
  %1 = alloca i32, align 4
  %2 = alloca [50 x i8], align 16
  %3 = alloca [50 x i8], align 16
  %4 = alloca i32, align 4
  %5 = alloca i32, align 4
  %6 = alloca i32, align 4
  %7 = alloca i32, align 4
  store i32 0, i32* %1, align 4
  store i32 -1, i32* %7, align 4
  %8 = getelementptr inbounds [50 x i8], [50 x i8]* %2, i64 0, i64 0
  %9 = getelementptr inbounds [50 x i8], [50 x i8]* %3, i64 0, i64 0
  %10 = call i32 (i8*, ...) @__isoc99_scanf(i8* getelementptr inbounds ([6 x i8], [6 x i8]* @.str, i64 0, i64 0), i8* %8, i8* %9)
  store i32 0, i32* %4, align 4
  br label %11

11:                                               ; preds = %63, %0
  %12 = load i32, i32* %4, align 4
  %13 = sext i32 %12 to i64
  %14 = getelementptr inbounds [50 x i8], [50 x i8]* %3, i64 0, i64 %13
  %15 = load i8, i8* %14, align 1
  %16 = sext i8 %15 to i32
  %17 = icmp ne i32 %16, 0
  br i1 %17, label %18, label %66

18:                                               ; preds = %11
  %19 = load i32, i32* %7, align 4
  %20 = add nsw i32 %19, 1
  store i32 %20, i32* %7, align 4
  %21 = load i32, i32* %4, align 4
  %22 = sext i32 %21 to i64
  %23 = getelementptr inbounds [50 x i8], [50 x i8]* %3, i64 0, i64 %22
  %24 = load i8, i8* %23, align 1
  %25 = sext i8 %24 to i32
  %26 = getelementptr inbounds [50 x i8], [50 x i8]* %2, i64 0, i64 0
  %27 = load i8, i8* %26, align 16
  %28 = sext i8 %27 to i32
  %29 = icmp eq i32 %25, %28
  br i1 %29, label %30, label %58

30:                                               ; preds = %18
  store i32 0, i32* %6, align 4
  br label %31

31:                                               ; preds = %54, %30
  %32 = load i32, i32* %6, align 4
  %33 = sext i32 %32 to i64
  %34 = getelementptr inbounds [50 x i8], [50 x i8]* %2, i64 0, i64 %33
  %35 = load i8, i8* %34, align 1
  %36 = sext i8 %35 to i32
  %37 = icmp ne i32 %36, 0
  br i1 %37, label %38, label %57

38:                                               ; preds = %31
  %39 = load i32, i32* %4, align 4
  %40 = load i32, i32* %6, align 4
  %41 = add nsw i32 %39, %40
  %42 = sext i32 %41 to i64
  %43 = getelementptr inbounds [50 x i8], [50 x i8]* %3, i64 0, i64 %42
  %44 = load i8, i8* %43, align 1
  %45 = sext i8 %44 to i32
  %46 = load i32, i32* %6, align 4
  %47 = sext i32 %46 to i64
  %48 = getelementptr inbounds [50 x i8], [50 x i8]* %2, i64 0, i64 %47
  %49 = load i8, i8* %48, align 1
  %50 = sext i8 %49 to i32
  %51 = icmp ne i32 %45, %50
  br i1 %51, label %52, label %53

52:                                               ; preds = %38
  store i32 0, i32* %5, align 4
  br label %57

53:                                               ; preds = %38
  store i32 1, i32* %5, align 4
  br label %54

54:                                               ; preds = %53
  %55 = load i32, i32* %6, align 4
  %56 = add nsw i32 %55, 1
  store i32 %56, i32* %6, align 4
  br label %31

57:                                               ; preds = %52, %31
  br label %58

58:                                               ; preds = %57, %18
  %59 = load i32, i32* %5, align 4
  %60 = icmp eq i32 %59, 1
  br i1 %60, label %61, label %62

61:                                               ; preds = %58
  br label %66

62:                                               ; preds = %58
  br label %63

63:                                               ; preds = %62
  %64 = load i32, i32* %4, align 4
  %65 = add nsw i32 %64, 1
  store i32 %65, i32* %4, align 4
  br label %11

66:                                               ; preds = %61, %11
  %67 = load i32, i32* %7, align 4
  %68 = call i32 (i8*, ...) @printf(i8* getelementptr inbounds ([3 x i8], [3 x i8]* @.str.1, i64 0, i64 0), i32 %67)
  %69 = load i32, i32* %1, align 4
  ret i32 %69
}

declare dso_local i32 @__isoc99_scanf(i8*, ...) #1

declare dso_local i32 @printf(i8*, ...) #1


!llvm.module.flags = !{!0}
!llvm.ident = !{!1}

!0 = !{i32 1, !"wchar_size", i32 4}
!1 = !{!"clang version 10.0.0-4ubuntu1 "}
